target datalayout = "e-m:e-p270:32:32-p271:32:32-p272:64:64-i64:64-i128:128-f80:128-n8:16:32:64-S128"
target triple = "x86_64-pc-linux-gnu"

%struct.poly_st = type { [256 x i32] }

; Function Attrs: inlinehint nounwind uwtable
define internal i32 @shake_xof(ptr noundef %0, ptr noundef %1, ptr noundef %2, i64 noundef %3, ptr noundef %4, i64 noundef %5) #3 {
  %7 = alloca ptr, align 8
  %8 = alloca ptr, align 8
  %9 = alloca ptr, align 8
  %10 = alloca i64, align 8
  %11 = alloca ptr, align 8
  %12 = alloca i64, align 8
  store ptr %0, ptr %7, align 8, !tbaa !3
  store ptr %1, ptr %8, align 8, !tbaa !8
  store ptr %2, ptr %9, align 8, !tbaa !10
  store i64 %3, ptr %10, align 8, !tbaa !21
  store ptr %4, ptr %11, align 8, !tbaa !10
  store i64 %5, ptr %12, align 8, !tbaa !21
  %13 = load ptr, ptr %7, align 8, !tbaa !3
  %14 = load ptr, ptr %8, align 8, !tbaa !8
  %15 = call i32 @EVP_DigestInit_ex2(ptr noundef %13, ptr noundef %14, ptr noundef null)
  %16 = icmp eq i32 %15, 1
  br i1 %16, label %17, label %29

17:                                               ; preds = %6
  %18 = load ptr, ptr %7, align 8, !tbaa !3
  %19 = load ptr, ptr %9, align 8, !tbaa !10
  %20 = load i64, ptr %10, align 8, !tbaa !21
  %21 = call i32 @EVP_DigestUpdate(ptr noundef %18, ptr noundef %19, i64 noundef %20)
  %22 = icmp eq i32 %21, 1
  br i1 %22, label %23, label %29

23:                                               ; preds = %17
  %24 = load ptr, ptr %7, align 8, !tbaa !3
  %25 = load ptr, ptr %11, align 8, !tbaa !10
  %26 = load i64, ptr %12, align 8, !tbaa !21
  %27 = call i32 @EVP_DigestSqueeze(ptr noundef %24, ptr noundef %25, i64 noundef %26)
  %28 = icmp eq i32 %27, 1
  br label %29

29:                                               ; preds = %23, %17, %6
  %30 = phi i1 [ false, %17 ], [ false, %6 ], [ %28, %23 ]
  %31 = zext i1 %30 to i32
  ret i32 %31
}

; Function Attrs: nounwind uwtable
define internal i32 @rej_bounded_poly(ptr noundef %0, ptr noundef %1, ptr noundef %2, ptr noundef %3, i64 noundef %4, ptr noundef %5) #0 {
  %7 = alloca i32, align 4
  %8 = alloca ptr, align 8
  %9 = alloca ptr, align 8
  %10 = alloca ptr, align 8
  %11 = alloca ptr, align 8
  %12 = alloca i64, align 8
  %13 = alloca ptr, align 8
  %14 = alloca i32, align 4
  %15 = alloca i32, align 4
  %16 = alloca i32, align 4
  %17 = alloca [136 x i8], align 16
  %18 = alloca ptr, align 8
  %19 = alloca ptr, align 8
  %20 = alloca i32, align 4
  store ptr %0, ptr %8, align 8, !tbaa !3
  store ptr %1, ptr %9, align 8, !tbaa !8
  store ptr %2, ptr %10, align 8, !tbaa !33
  store ptr %3, ptr %11, align 8, !tbaa !10
  store i64 %4, ptr %12, align 8, !tbaa !21
  store ptr %5, ptr %13, align 8, !tbaa !20
  call void @llvm.lifetime.start.p0(i64 4, ptr %14) #6
  store i32 0, ptr %14, align 4, !tbaa !14
  call void @llvm.lifetime.start.p0(i64 4, ptr %15) #6
  call void @llvm.lifetime.start.p0(i64 4, ptr %16) #6
  call void @llvm.lifetime.start.p0(i64 136, ptr %17) #6
  call void @llvm.lifetime.start.p0(i64 8, ptr %18) #6
  call void @llvm.lifetime.start.p0(i64 8, ptr %19) #6
  %21 = getelementptr inbounds [136 x i8], ptr %17, i64 0, i64 0
  %22 = getelementptr inbounds nuw i8, ptr %21, i64 136
  store ptr %22, ptr %19, align 8, !tbaa !10
  %23 = load ptr, ptr %8, align 8, !tbaa !3
  %24 = load ptr, ptr %9, align 8, !tbaa !8
  %25 = load ptr, ptr %11, align 8, !tbaa !10
  %26 = load i64, ptr %12, align 8, !tbaa !21
  %27 = getelementptr inbounds [136 x i8], ptr %17, i64 0, i64 0
  %28 = call i32 @shake_xof(ptr noundef %23, ptr noundef %24, ptr noundef %25, i64 noundef %26, ptr noundef %27, i64 noundef 136)
  %29 = icmp ne i32 %28, 0
  br i1 %29, label %31, label %30

30:                                               ; preds = %6
  store i32 0, ptr %7, align 4
  store i32 1, ptr %20, align 4
  br label %88

31:                                               ; preds = %6
  br label %32

32:                                               ; preds = %87, %31
  br label %33

33:                                               ; preds = %32
  %34 = getelementptr inbounds [136 x i8], ptr %17, i64 0, i64 0
  store ptr %34, ptr %18, align 8, !tbaa !10
  br label %35

35:                                               ; preds = %78, %33
  %36 = load ptr, ptr %18, align 8, !tbaa !10
  %37 = load ptr, ptr %19, align 8, !tbaa !10
  %38 = icmp ult ptr %36, %37
  br i1 %38, label %39, label %81

39:                                               ; preds = %35
  %40 = load ptr, ptr %18, align 8, !tbaa !10
  %41 = load i8, ptr %40, align 1, !tbaa !24
  %42 = zext i8 %41 to i32
  %43 = and i32 %42, 15
  store i32 %43, ptr %15, align 4, !tbaa !14
  %44 = load ptr, ptr %18, align 8, !tbaa !10
  %45 = load i8, ptr %44, align 1, !tbaa !24
  %46 = zext i8 %45 to i32
  %47 = ashr i32 %46, 4
  store i32 %47, ptr %16, align 4, !tbaa !14
  %48 = load ptr, ptr %10, align 8, !tbaa !33
  %49 = load i32, ptr %15, align 4, !tbaa !14
  %50 = load ptr, ptr %13, align 8, !tbaa !20
  %51 = getelementptr inbounds nuw %struct.poly_st, ptr %50, i32 0, i32 0
  %52 = load i32, ptr %14, align 4, !tbaa !14
  %53 = sext i32 %52 to i64
  %54 = getelementptr inbounds [256 x i32], ptr %51, i64 0, i64 %53
  %55 = call i32 %48(i32 noundef %49, ptr noundef %54)
  %56 = icmp ne i32 %55, 0
  br i1 %56, label %57, label %62

57:                                               ; preds = %39
  %58 = load i32, ptr %14, align 4, !tbaa !14
  %59 = add nsw i32 %58, 1
  store i32 %59, ptr %14, align 4, !tbaa !14
  %60 = icmp sge i32 %59, 256
  br i1 %60, label %61, label %62

61:                                               ; preds = %57
  store i32 1, ptr %7, align 4
  store i32 1, ptr %20, align 4
  br label %88

62:                                               ; preds = %57, %39
  %63 = load ptr, ptr %10, align 8, !tbaa !33
  %64 = load i32, ptr %16, align 4, !tbaa !14
  %65 = load ptr, ptr %13, align 8, !tbaa !20
  %66 = getelementptr inbounds nuw %struct.poly_st, ptr %65, i32 0, i32 0
  %67 = load i32, ptr %14, align 4, !tbaa !14
  %68 = sext i32 %67 to i64
  %69 = getelementptr inbounds [256 x i32], ptr %66, i64 0, i64 %68
  %70 = call i32 %63(i32 noundef %64, ptr noundef %69)
  %71 = icmp ne i32 %70, 0
  br i1 %71, label %72, label %77

72:                                               ; preds = %62
  %73 = load i32, ptr %14, align 4, !tbaa !14
  %74 = add nsw i32 %73, 1
  store i32 %74, ptr %14, align 4, !tbaa !14
  %75 = icmp sge i32 %74, 256
  br i1 %75, label %76, label %77

76:                                               ; preds = %72
  store i32 1, ptr %7, align 4
  store i32 1, ptr %20, align 4
  br label %88

77:                                               ; preds = %72, %62
  br label %78

78:                                               ; preds = %77
  %79 = load ptr, ptr %18, align 8, !tbaa !10
  %80 = getelementptr inbounds nuw i8, ptr %79, i32 1
  store ptr %80, ptr %18, align 8, !tbaa !10
  br label %35, !llvm.loop !39

81:                                               ; preds = %35
  %82 = load ptr, ptr %8, align 8, !tbaa !3
  %83 = getelementptr inbounds [136 x i8], ptr %17, i64 0, i64 0
  %84 = call i32 @EVP_DigestSqueeze(ptr noundef %82, ptr noundef %83, i64 noundef 136)
  %85 = icmp ne i32 %84, 0
  br i1 %85, label %87, label %86

86:                                               ; preds = %81
  store i32 0, ptr %7, align 4
  store i32 1, ptr %20, align 4
  br label %88

87:                                               ; preds = %81
  br label %32

88:                                               ; preds = %86, %76, %61, %30
  call void @llvm.lifetime.end.p0(i64 8, ptr %19) #6
  call void @llvm.lifetime.end.p0(i64 8, ptr %18) #6
  call void @llvm.lifetime.end.p0(i64 136, ptr %17) #6
  call void @llvm.lifetime.end.p0(i64 4, ptr %16) #6
  call void @llvm.lifetime.end.p0(i64 4, ptr %15) #6
  call void @llvm.lifetime.end.p0(i64 4, ptr %14) #6
  %89 = load i32, ptr %7, align 4
  ret i32 %89
}