; Function Attrs: nounwind uwtable
define internal fastcc range(i32 0, 2) i32 @rej_bounded_poly(ptr noundef %0, ptr noundef %1, ptr noundef readonly captures(none) %2, ptr noundef nonnull %3, ptr noundef %4) unnamed_addr #0 {
  %6 = alloca [136 x i8], align 16
  call void @llvm.lifetime.start.p0(i64 136, ptr nonnull %6) #6
  %7 = tail call i32 @EVP_DigestInit_ex2(ptr noundef %0, ptr noundef %1, ptr noundef null) #6
  %8 = icmp eq i32 %7, 1
  br i1 %8, label %9, label %shake_xof.exit.thread

9:                                                ; preds = %5
  %10 = tail call i32 @EVP_DigestUpdate(ptr noundef %0, ptr noundef nonnull %3, i64 noundef 66) #6
  %11 = icmp eq i32 %10, 1
  br i1 %11, label %shake_xof.exit, label %shake_xof.exit.thread

shake_xof.exit:                                   ; preds = %9
  %12 = call i32 @EVP_DigestSqueeze(ptr noundef %0, ptr noundef nonnull %6, i64 noundef 136) #6
  %.not = icmp eq i32 %12, 1
  br i1 %.not, label %.preheader, label %shake_xof.exit.thread

.preheader:                                       ; preds = %shake_xof.exit, %.preheader.backedge
  %.020.idx31 = phi i64 [ %.020.idx31.be, %.preheader.backedge ], [ 0, %shake_xof.exit ]
  %.130 = phi i32 [ %.3, %.preheader.backedge ], [ 0, %shake_xof.exit ]
  %.020.ptr = getelementptr inbounds nuw i8, ptr %6, i64 %.020.idx31
  %13 = load i8, ptr %.020.ptr, align 1, !tbaa !12
  %14 = zext i8 %13 to i32
  %15 = and i32 %14, 15
  %16 = lshr i32 %14, 4
  %17 = sext i32 %.130 to i64
  %18 = getelementptr inbounds [256 x i32], ptr %4, i64 0, i64 %17
  %19 = call i32 %2(i32 noundef %15, ptr noundef %18) #6, !callees !26
  %.not25 = icmp eq i32 %19, 0
  br i1 %.not25, label %23, label %20

20:                                               ; preds = %.preheader
  %21 = icmp sgt i32 %.130, 254
  br i1 %21, label %shake_xof.exit.thread, label %._crit_edge

._crit_edge:                                      ; preds = %20
  %22 = add nsw i32 %.130, 1
  %.pre = sext i32 %22 to i64
  br label %23

23:                                               ; preds = %._crit_edge, %.preheader
  %.pre-phi = phi i64 [ %.pre, %._crit_edge ], [ %17, %.preheader ]
  %.2 = phi i32 [ %22, %._crit_edge ], [ %.130, %.preheader ]
  %24 = getelementptr inbounds [256 x i32], ptr %4, i64 0, i64 %.pre-phi
  %25 = call i32 %2(i32 noundef %16, ptr noundef %24) #6, !callees !26
  %.not26 = icmp eq i32 %25, 0
  br i1 %.not26, label %29, label %26

26:                                               ; preds = %23
  %27 = add nsw i32 %.2, 1
  %28 = icmp sgt i32 %.2, 254
  br i1 %28, label %shake_xof.exit.thread, label %29

29:                                               ; preds = %23, %26
  %.3 = phi i32 [ %27, %26 ], [ %.2, %23 ]
  %.020.add = add nuw nsw i64 %.020.idx31, 1
  %exitcond.not = icmp eq i64 %.020.add, 136
  br i1 %exitcond.not, label %30, label %.preheader.backedge

.preheader.backedge:                              ; preds = %29, %30
  %.020.idx31.be = phi i64 [ %.020.add, %29 ], [ 0, %30 ]
  br label %.preheader, !llvm.loop !27

30:                                               ; preds = %29
  %31 = call i32 @EVP_DigestSqueeze(ptr noundef %0, ptr noundef nonnull %6, i64 noundef 136) #6
  %.not24 = icmp eq i32 %31, 0
  br i1 %.not24, label %shake_xof.exit.thread, label %.preheader.backedge

shake_xof.exit.thread:                            ; preds = %30, %26, %20, %5, %9, %shake_xof.exit
  %.0 = phi i32 [ 0, %shake_xof.exit ], [ 0, %9 ], [ 0, %5 ], [ 0, %30 ], [ 1, %26 ], [ 1, %20 ]
  call void @llvm.lifetime.end.p0(i64 136, ptr nonnull %6) #6
  ret i32 %.0
}